; Function Attrs: mustprogress uwtable
define dso_local void @_ZN34btDeformableMultiBodyDynamicsWorld20afterSolverCallbacksEf(ptr noundef nonnull align 8 dereferenceable(1056) %0, float noundef %1) local_unnamed_addr #4 align 2 {
  %3 = getelementptr inbounds nuw i8, ptr %0, i64 1048
  %4 = load ptr, ptr %3, align 8, !tbaa !152
  %.not = icmp eq ptr %4, null
  br i1 %.not, label %8, label %5

5:                                                ; preds = %2
  %6 = getelementptr inbounds nuw i8, ptr %0, i64 1024
  %7 = load float, ptr %6, align 8, !tbaa !175
  tail call void %4(float noundef %7, ptr noundef nonnull %0)
  br label %8

8:                                                ; preds = %5, %2
  ret void
}